; Function Attrs: nounwind uwtable
define internal void @zrangeResultBeginStore(ptr noundef writeonly captures(none) initializes((24, 32)) %0, i64 noundef %1) #0 {
  %3 = tail call i64 @llvm.smax.i64(i64 %1, i64 0)
  %4 = load i64, ptr getelementptr inbounds nuw (i8, ptr @server, i64 7736), align 8, !tbaa !101
  %.not.i = icmp ugt i64 %3, %4
  br i1 %.not.i, label %7, label %5

5:                                                ; preds = %2
  %6 = tail call ptr @createZsetListpackObject() #18
  br label %zsetTypeCreate.exit

7:                                                ; preds = %2
  %8 = tail call ptr @createZsetObject() #18
  %9 = getelementptr inbounds nuw i8, ptr %8, i64 8
  %10 = load ptr, ptr %9, align 8, !tbaa !75
  %11 = load ptr, ptr %10, align 8, !tbaa !125
  %12 = tail call i32 @dictExpand(ptr noundef %11, i64 noundef %3) #18
  br label %zsetTypeCreate.exit

zsetTypeCreate.exit:                              ; preds = %5, %7
  %.0.i = phi ptr [ %6, %5 ], [ %8, %7 ]
  %13 = getelementptr inbounds nuw i8, ptr %0, i64 24
  store ptr %.0.i, ptr %13, align 8, !tbaa !229
  ret void
}